target datalayout = "e-m:e-p270:32:32-p271:32:32-p272:64:64-i64:64-i128:128-f80:128-n8:16:32:64-S128"
target triple = "x86_64-pc-linux-gnu"

; Function Attrs: nounwind uwtable
define internal void @local_getfields(ptr noundef %0, ptr noundef %1) #0 {
  %3 = alloca ptr, align 8
  %4 = alloca ptr, align 8
  %5 = alloca ptr, align 8
  %6 = alloca ptr, align 8
  %7 = alloca i32, align 4
  store ptr %0, ptr %3, align 8, !tbaa !48
  store ptr %1, ptr %4, align 8, !tbaa !144
  call void @llvm.lifetime.start.p0(i64 8, ptr %5) #12
  call void @llvm.lifetime.start.p0(i64 8, ptr %6) #12
  %8 = load ptr, ptr %4, align 8, !tbaa !144
  store ptr null, ptr %8, align 8, !tbaa !85
  %9 = load ptr, ptr %3, align 8, !tbaa !48
  store ptr %9, ptr %5, align 8, !tbaa !48
  br label %10

10:                                               ; preds = %30, %2
  %11 = load ptr, ptr %5, align 8, !tbaa !48
  %12 = load i8, ptr %11, align 1, !tbaa !46
  %13 = sext i8 %12 to i32
  %14 = icmp ne i32 0, %13
  br i1 %14, label %15, label %28

15:                                               ; preds = %10
  %16 = call ptr @__ctype_b_loc() #14
  %17 = load ptr, ptr %16, align 8, !tbaa !123
  %18 = load ptr, ptr %5, align 8, !tbaa !48
  %19 = load i8, ptr %18, align 1, !tbaa !46
  %20 = sext i8 %19 to i32
  %21 = sext i32 %20 to i64
  %22 = getelementptr inbounds i16, ptr %17, i64 %21
  %23 = load i16, ptr %22, align 2, !tbaa !125
  %24 = zext i16 %23 to i32
  %25 = and i32 %24, 8
  %26 = icmp ne i32 %25, 0
  %27 = xor i1 %26, true
  br label %28

28:                                               ; preds = %15, %10
  %29 = phi i1 [ false, %10 ], [ %27, %15 ]
  br i1 %29, label %30, label %33

30:                                               ; preds = %28
  %31 = load ptr, ptr %5, align 8, !tbaa !48
  %32 = getelementptr inbounds nuw i8, ptr %31, i32 1
  store ptr %32, ptr %5, align 8, !tbaa !48
  br label %10, !llvm.loop !146

33:                                               ; preds = %28
  %34 = load ptr, ptr %5, align 8, !tbaa !48
  %35 = load i8, ptr %34, align 1, !tbaa !46
  %36 = sext i8 %35 to i32
  %37 = icmp eq i32 0, %36
  br i1 %37, label %38, label %39

38:                                               ; preds = %33
  store i32 1, ptr %7, align 4
  br label %119

39:                                               ; preds = %33
  %40 = load ptr, ptr %5, align 8, !tbaa !48
  store ptr %40, ptr %6, align 8, !tbaa !48
  %41 = load ptr, ptr %6, align 8, !tbaa !48
  %42 = getelementptr inbounds nuw i8, ptr %41, i32 1
  store ptr %42, ptr %6, align 8, !tbaa !48
  br label %43

43:                                               ; preds = %107, %39
  %44 = load ptr, ptr %6, align 8, !tbaa !48
  %45 = load i8, ptr %44, align 1, !tbaa !46
  %46 = sext i8 %45 to i32
  %47 = icmp ne i32 0, %46
  br i1 %47, label %48, label %111

48:                                               ; preds = %43
  br label %49

49:                                               ; preds = %68, %48
  %50 = load ptr, ptr %6, align 8, !tbaa !48
  %51 = load i8, ptr %50, align 1, !tbaa !46
  %52 = sext i8 %51 to i32
  %53 = icmp ne i32 0, %52
  br i1 %53, label %54, label %66

54:                                               ; preds = %49
  %55 = call ptr @__ctype_b_loc() #14
  %56 = load ptr, ptr %55, align 8, !tbaa !123
  %57 = load ptr, ptr %6, align 8, !tbaa !48
  %58 = load i8, ptr %57, align 1, !tbaa !46
  %59 = sext i8 %58 to i32
  %60 = sext i32 %59 to i64
  %61 = getelementptr inbounds i16, ptr %56, i64 %60
  %62 = load i16, ptr %61, align 2, !tbaa !125
  %63 = zext i16 %62 to i32
  %64 = and i32 %63, 8
  %65 = icmp ne i32 %64, 0
  br label %66

66:                                               ; preds = %54, %49
  %67 = phi i1 [ false, %49 ], [ %65, %54 ]
  br i1 %67, label %68, label %71

68:                                               ; preds = %66
  %69 = load ptr, ptr %6, align 8, !tbaa !48
  %70 = getelementptr inbounds nuw i8, ptr %69, i32 1
  store ptr %70, ptr %6, align 8, !tbaa !48
  br label %49, !llvm.loop !147

71:                                               ; preds = %66
  %72 = load ptr, ptr %6, align 8, !tbaa !48
  store i8 0, ptr %72, align 1, !tbaa !46
  %73 = load ptr, ptr %4, align 8, !tbaa !144
  %74 = load ptr, ptr %5, align 8, !tbaa !48
  %75 = call i32 @PMIx_Argv_append_nosize(ptr noundef %73, ptr noundef %74)
  %76 = load ptr, ptr %6, align 8, !tbaa !48
  %77 = getelementptr inbounds nuw i8, ptr %76, i32 1
  store ptr %77, ptr %6, align 8, !tbaa !48
  br label %78

78:                                               ; preds = %98, %71
  %79 = load ptr, ptr %6, align 8, !tbaa !48
  %80 = load i8, ptr %79, align 1, !tbaa !46
  %81 = sext i8 %80 to i32
  %82 = icmp ne i32 0, %81
  br i1 %82, label %83, label %96

83:                                               ; preds = %78
  %84 = call ptr @__ctype_b_loc() #14
  %85 = load ptr, ptr %84, align 8, !tbaa !123
  %86 = load ptr, ptr %6, align 8, !tbaa !48
  %87 = load i8, ptr %86, align 1, !tbaa !46
  %88 = sext i8 %87 to i32
  %89 = sext i32 %88 to i64
  %90 = getelementptr inbounds i16, ptr %85, i64 %89
  %91 = load i16, ptr %90, align 2, !tbaa !125
  %92 = zext i16 %91 to i32
  %93 = and i32 %92, 8
  %94 = icmp ne i32 %93, 0
  %95 = xor i1 %94, true
  br label %96

96:                                               ; preds = %83, %78
  %97 = phi i1 [ false, %78 ], [ %95, %83 ]
  br i1 %97, label %98, label %101

98:                                               ; preds = %96
  %99 = load ptr, ptr %6, align 8, !tbaa !48
  %100 = getelementptr inbounds nuw i8, ptr %99, i32 1
  store ptr %100, ptr %6, align 8, !tbaa !48
  br label %78, !llvm.loop !148

101:                                              ; preds = %96
  %102 = load ptr, ptr %6, align 8, !tbaa !48
  %103 = load i8, ptr %102, align 1, !tbaa !46
  %104 = sext i8 %103 to i32
  %105 = icmp eq i32 0, %104
  br i1 %105, label %106, label %107

106:                                              ; preds = %101
  store ptr null, ptr %5, align 8, !tbaa !48
  br label %111

107:                                              ; preds = %101
  %108 = load ptr, ptr %6, align 8, !tbaa !48
  store ptr %108, ptr %5, align 8, !tbaa !48
  %109 = load ptr, ptr %6, align 8, !tbaa !48
  %110 = getelementptr inbounds nuw i8, ptr %109, i32 1
  store ptr %110, ptr %6, align 8, !tbaa !48
  br label %43, !llvm.loop !149

111:                                              ; preds = %106, %43
  %112 = load ptr, ptr %5, align 8, !tbaa !48
  %113 = icmp ne ptr null, %112
  br i1 %113, label %114, label %118

114:                                              ; preds = %111
  %115 = load ptr, ptr %4, align 8, !tbaa !144
  %116 = load ptr, ptr %5, align 8, !tbaa !48
  %117 = call i32 @PMIx_Argv_append_nosize(ptr noundef %115, ptr noundef %116)
  br label %118

118:                                              ; preds = %114, %111
  store i32 0, ptr %7, align 4
  br label %119

119:                                              ; preds = %118, %38
  call void @llvm.lifetime.end.p0(i64 8, ptr %6) #12
  call void @llvm.lifetime.end.p0(i64 8, ptr %5) #12
  %120 = load i32, ptr %7, align 4
  switch i32 %120, label %122 [
    i32 0, label %121
    i32 1, label %121
  ]

121:                                              ; preds = %119, %119
  ret void

122:                                              ; preds = %119
  unreachable
}