; Function Attrs: nounwind uwtable
define internal fastcc void @local_getfields(ptr noundef %0, ptr noundef nonnull initializes((0, 8)) %1) unnamed_addr #1 {
  store ptr null, ptr %1, align 8, !tbaa !87
  %3 = load i8, ptr %0, align 1, !tbaa !41
  %.not48 = icmp eq i8 %3, 0
  br i1 %.not48, label %.critedge.thread, label %.lr.ph

.lr.ph:                                           ; preds = %2
  %4 = tail call ptr @__ctype_b_loc() #19
  %5 = load ptr, ptr %4, align 8, !tbaa !45
  br label %6

6:                                                ; preds = %.lr.ph, %14
  %7 = phi i8 [ %3, %.lr.ph ], [ %13, %14 ]
  %.02949 = phi ptr [ %0, %.lr.ph ], [ %12, %14 ]
  %8 = sext i8 %7 to i64
  %9 = getelementptr inbounds i16, ptr %5, i64 %8
  %10 = load i16, ptr %9, align 2, !tbaa !47
  %11 = and i16 %10, 8
  %.not35 = icmp eq i16 %11, 0
  %12 = getelementptr inbounds nuw i8, ptr %.02949, i64 1
  %13 = load i8, ptr %12, align 1, !tbaa !41
  %.not = icmp eq i8 %13, 0
  br i1 %.not35, label %14, label %.critedge.preheader

.critedge.preheader:                              ; preds = %6
  br i1 %.not, label %.critedge._crit_edge, label %.preheader

14:                                               ; preds = %6
  br i1 %.not, label %.critedge.thread, label %6, !llvm.loop !128

.preheader:                                       ; preds = %.critedge.preheader, %.critedge4
  %15 = phi ptr [ %29, %.critedge4 ], [ %5, %.critedge.preheader ]
  %16 = phi i8 [ %34, %.critedge4 ], [ %13, %.critedge.preheader ]
  %.054 = phi ptr [ %.0, %.critedge4 ], [ %12, %.critedge.preheader ]
  %.13053 = phi ptr [ %.2, %.critedge4 ], [ %.02949, %.critedge.preheader ]
  br label %17

17:                                               ; preds = %.preheader, %23
  %.150 = phi ptr [ %.054, %.preheader ], [ %24, %23 ]
  %18 = phi i8 [ %16, %.preheader ], [ %.pr, %23 ]
  %19 = sext i8 %18 to i64
  %20 = getelementptr inbounds i16, ptr %15, i64 %19
  %21 = load i16, ptr %20, align 2, !tbaa !47
  %22 = and i16 %21, 8
  %.not38 = icmp eq i16 %22, 0
  br i1 %.not38, label %.critedge2, label %23

23:                                               ; preds = %17
  %24 = getelementptr inbounds nuw i8, ptr %.150, i64 1
  %.pr = load i8, ptr %24, align 1, !tbaa !41
  %.not37 = icmp eq i8 %.pr, 0
  br i1 %.not37, label %.critedge2, label %17, !llvm.loop !129

.critedge2:                                       ; preds = %23, %17
  %.1.lcssa = phi ptr [ %24, %23 ], [ %.150, %17 ]
  store i8 0, ptr %.1.lcssa, align 1, !tbaa !41
  %25 = tail call i32 @PMIx_Argv_append_nosize(ptr noundef nonnull %1, ptr noundef nonnull %.13053) #17
  br label %26

26:                                               ; preds = %28, %.critedge2
  %.1.pn = phi ptr [ %.1.lcssa, %.critedge2 ], [ %.2, %28 ]
  %.2 = getelementptr inbounds nuw i8, ptr %.1.pn, i64 1
  %27 = load i8, ptr %.2, align 1, !tbaa !41
  %.not39 = icmp eq i8 %27, 0
  br i1 %.not39, label %.critedge.thread, label %28

28:                                               ; preds = %26
  %29 = load ptr, ptr %4, align 8, !tbaa !45
  %30 = sext i8 %27 to i64
  %31 = getelementptr inbounds i16, ptr %29, i64 %30
  %32 = load i16, ptr %31, align 2, !tbaa !47
  %33 = and i16 %32, 8
  %.not40 = icmp eq i16 %33, 0
  br i1 %.not40, label %26, label %.critedge4, !llvm.loop !130

.critedge4:                                       ; preds = %28
  %.0 = getelementptr inbounds nuw i8, ptr %.1.pn, i64 2
  %34 = load i8, ptr %.0, align 1, !tbaa !41
  %.not36 = icmp eq i8 %34, 0
  br i1 %.not36, label %.critedge._crit_edge, label %.preheader, !llvm.loop !131

.critedge._crit_edge:                             ; preds = %.critedge4, %.critedge.preheader
  %.130.lcssa = phi ptr [ %.02949, %.critedge.preheader ], [ %.2, %.critedge4 ]
  %35 = tail call i32 @PMIx_Argv_append_nosize(ptr noundef nonnull %1, ptr noundef nonnull %.130.lcssa) #17
  br label %.critedge.thread

.critedge.thread:                                 ; preds = %14, %26, %2, %.critedge._crit_edge
  ret void
}